target datalayout = "e-m:e-p270:32:32-p271:32:32-p272:64:64-i64:64-i128:128-f80:128-n8:16:32:64-S128"
target triple = "x86_64-pc-linux-gnu"

%struct.list_head = type { ptr, ptr }
%struct.strbuf = type { i64, i64, ptr }
%struct.alt_base = type { ptr, i32, ptr, ptr }
%struct.object_request = type { ptr, %struct.object_id, ptr, i32, ptr, %struct.list_head }
%struct.object_id = type { [32 x i8], i32 }
%struct.http_object_request = type { ptr, %struct.strbuf, i32, i32, [256 x i8], i64, %struct.object_id, %struct.object_id, %union.git_hash_ctx, %struct.git_zstream, i32, i32, ptr, ptr }
%union.git_hash_ctx = type { %struct.SHA1_CTX }
%struct.SHA1_CTX = type { i64, [5 x i32], [64 x i8], i32, i32, i32, i32, i32, ptr, [5 x i32], [5 x i32], [80 x i32], [80 x i32], [80 x [5 x i32]] }
%struct.git_zstream = type { %struct.z_stream_s, i64, i64, i64, i64, ptr, ptr }
%struct.z_stream_s = type { ptr, i32, i64, ptr, i32, i64, ptr, ptr, ptr, ptr, ptr, i32, i64, i64 }
%struct.active_request_slot = type { ptr, i32, i32, i64, ptr, ptr, ptr, ptr, ptr }

@object_queue_head = internal global %struct.list_head { ptr @object_queue_head, ptr @object_queue_head }, align 8
@the_repository = external global ptr, align 8

; Function Attrs: nounwind uwtable
define internal void @start_object_request(ptr noundef %0) #0 {
  %2 = alloca ptr, align 8
  %3 = alloca ptr, align 8
  %4 = alloca ptr, align 8
  %5 = alloca i32, align 4
  store ptr %0, ptr %2, align 8, !tbaa !40
  call void @llvm.lifetime.start.p0(i64 8, ptr %3) #8
  call void @llvm.lifetime.start.p0(i64 8, ptr %4) #8
  %6 = load ptr, ptr %2, align 8, !tbaa !40
  %7 = getelementptr inbounds nuw %struct.object_request, ptr %6, i32 0, i32 2
  %8 = load ptr, ptr %7, align 8, !tbaa !48
  %9 = getelementptr inbounds nuw %struct.alt_base, ptr %8, i32 0, i32 0
  %10 = load ptr, ptr %9, align 8, !tbaa !17
  %11 = load ptr, ptr %2, align 8, !tbaa !40
  %12 = getelementptr inbounds nuw %struct.object_request, ptr %11, i32 0, i32 1
  %13 = call ptr @new_http_object_request(ptr noundef %10, ptr noundef %12)
  store ptr %13, ptr %4, align 8, !tbaa !74
  %14 = load ptr, ptr %4, align 8, !tbaa !74
  %15 = icmp ne ptr %14, null
  br i1 %15, label %19, label %16

16:                                               ; preds = %1
  %17 = load ptr, ptr %2, align 8, !tbaa !40
  %18 = getelementptr inbounds nuw %struct.object_request, ptr %17, i32 0, i32 3
  store i32 1, ptr %18, align 8, !tbaa !49
  store i32 1, ptr %5, align 4
  br label %40

19:                                               ; preds = %1
  %20 = load ptr, ptr %4, align 8, !tbaa !74
  %21 = load ptr, ptr %2, align 8, !tbaa !40
  %22 = getelementptr inbounds nuw %struct.object_request, ptr %21, i32 0, i32 4
  store ptr %20, ptr %22, align 8, !tbaa !50
  %23 = load ptr, ptr %4, align 8, !tbaa !74
  %24 = getelementptr inbounds nuw %struct.http_object_request, ptr %23, i32 0, i32 12
  %25 = load ptr, ptr %24, align 8, !tbaa !64
  store ptr %25, ptr %3, align 8, !tbaa !97
  %26 = load ptr, ptr %3, align 8, !tbaa !97
  %27 = getelementptr inbounds nuw %struct.active_request_slot, ptr %26, i32 0, i32 7
  store ptr @process_object_response, ptr %27, align 8, !tbaa !98
  %28 = load ptr, ptr %2, align 8, !tbaa !40
  %29 = load ptr, ptr %3, align 8, !tbaa !97
  %30 = getelementptr inbounds nuw %struct.active_request_slot, ptr %29, i32 0, i32 6
  store ptr %28, ptr %30, align 8, !tbaa !102
  %31 = load ptr, ptr %2, align 8, !tbaa !40
  %32 = getelementptr inbounds nuw %struct.object_request, ptr %31, i32 0, i32 3
  store i32 2, ptr %32, align 8, !tbaa !49
  %33 = load ptr, ptr %3, align 8, !tbaa !97
  %34 = call i32 @start_active_slot(ptr noundef %33)
  %35 = icmp ne i32 %34, 0
  br i1 %35, label %39, label %36

36:                                               ; preds = %19
  %37 = load ptr, ptr %2, align 8, !tbaa !40
  %38 = getelementptr inbounds nuw %struct.object_request, ptr %37, i32 0, i32 3
  store i32 1, ptr %38, align 8, !tbaa !49
  call void @release_http_object_request(ptr noundef %4)
  store i32 1, ptr %5, align 4
  br label %40

39:                                               ; preds = %19
  store i32 0, ptr %5, align 4
  br label %40

40:                                               ; preds = %39, %36, %16
  call void @llvm.lifetime.end.p0(i64 8, ptr %4) #8
  call void @llvm.lifetime.end.p0(i64 8, ptr %3) #8
  %41 = load i32, ptr %5, align 4
  switch i32 %41, label %43 [
    i32 0, label %42
    i32 1, label %42
  ]

42:                                               ; preds = %40, %40
  ret void

43:                                               ; preds = %40
  unreachable
}

; Function Attrs: nounwind uwtable
define internal i32 @fill_active_slot(ptr noundef %0) #0 {
  %2 = alloca i32, align 4
  %3 = alloca ptr, align 8
  %4 = alloca ptr, align 8
  %5 = alloca ptr, align 8
  %6 = alloca ptr, align 8
  %7 = alloca ptr, align 8
  %8 = alloca i32, align 4
  store ptr %0, ptr %3, align 8, !tbaa !56
  call void @llvm.lifetime.start.p0(i64 8, ptr %4) #8
  call void @llvm.lifetime.start.p0(i64 8, ptr %5) #8
  call void @llvm.lifetime.start.p0(i64 8, ptr %6) #8
  call void @llvm.lifetime.start.p0(i64 8, ptr %7) #8
  store ptr @object_queue_head, ptr %7, align 8, !tbaa !57
  %9 = load ptr, ptr %7, align 8, !tbaa !57
  %10 = getelementptr inbounds nuw %struct.list_head, ptr %9, i32 0, i32 0
  %11 = load ptr, ptr %10, align 8, !tbaa !58
  store ptr %11, ptr %5, align 8, !tbaa !57
  %12 = load ptr, ptr %5, align 8, !tbaa !57
  %13 = getelementptr inbounds nuw %struct.list_head, ptr %12, i32 0, i32 0
  %14 = load ptr, ptr %13, align 8, !tbaa !58
  store ptr %14, ptr %6, align 8, !tbaa !57
  br label %15

15:                                               ; preds = %39, %1
  %16 = load ptr, ptr %5, align 8, !tbaa !57
  %17 = load ptr, ptr %7, align 8, !tbaa !57
  %18 = icmp ne ptr %16, %17
  br i1 %18, label %19, label %44

19:                                               ; preds = %15
  %20 = load ptr, ptr %5, align 8, !tbaa !57
  %21 = getelementptr inbounds i8, ptr %20, i64 -72
  store ptr %21, ptr %4, align 8, !tbaa !40
  %22 = load ptr, ptr %4, align 8, !tbaa !40
  %23 = getelementptr inbounds nuw %struct.object_request, ptr %22, i32 0, i32 3
  %24 = load i32, ptr %23, align 8, !tbaa !49
  %25 = icmp eq i32 %24, 0
  br i1 %25, label %26, label %38

26:                                               ; preds = %19
  %27 = load ptr, ptr @the_repository, align 8, !tbaa !59
  %28 = load ptr, ptr %4, align 8, !tbaa !40
  %29 = getelementptr inbounds nuw %struct.object_request, ptr %28, i32 0, i32 1
  %30 = call i32 @repo_has_object_file(ptr noundef %27, ptr noundef %29)
  %31 = icmp ne i32 %30, 0
  br i1 %31, label %32, label %35

32:                                               ; preds = %26
  %33 = load ptr, ptr %4, align 8, !tbaa !40
  %34 = getelementptr inbounds nuw %struct.object_request, ptr %33, i32 0, i32 3
  store i32 3, ptr %34, align 8, !tbaa !49
  br label %37

35:                                               ; preds = %26
  %36 = load ptr, ptr %4, align 8, !tbaa !40
  call void @start_object_request(ptr noundef %36)
  store i32 1, ptr %2, align 4
  store i32 1, ptr %8, align 4
  br label %45

37:                                               ; preds = %32
  br label %38

38:                                               ; preds = %37, %19
  br label %39

39:                                               ; preds = %38
  %40 = load ptr, ptr %6, align 8, !tbaa !57
  store ptr %40, ptr %5, align 8, !tbaa !57
  %41 = load ptr, ptr %5, align 8, !tbaa !57
  %42 = getelementptr inbounds nuw %struct.list_head, ptr %41, i32 0, i32 0
  %43 = load ptr, ptr %42, align 8, !tbaa !58
  store ptr %43, ptr %6, align 8, !tbaa !57
  br label %15, !llvm.loop !61

44:                                               ; preds = %15
  store i32 0, ptr %2, align 4
  store i32 1, ptr %8, align 4
  br label %45

45:                                               ; preds = %44, %35
  call void @llvm.lifetime.end.p0(i64 8, ptr %7) #8
  call void @llvm.lifetime.end.p0(i64 8, ptr %6) #8
  call void @llvm.lifetime.end.p0(i64 8, ptr %5) #8
  call void @llvm.lifetime.end.p0(i64 8, ptr %4) #8
  %46 = load i32, ptr %2, align 4
  ret i32 %46
}