; Function Attrs: nounwind uwtable
define internal range(i32 0, 2) i32 @fill_active_slot(ptr readnone captures(none) %0) #0 {
  %2 = alloca ptr, align 8
  %3 = load ptr, ptr @object_queue_head, align 8, !tbaa !27
  %.not16 = icmp eq ptr %3, @object_queue_head
  br i1 %.not16, label %.loopexit, label %.lr.ph

.lr.ph:                                           ; preds = %1, %27
  %.01217 = phi ptr [ %.01118, %27 ], [ %3, %1 ]
  %.01118 = load ptr, ptr %.01217, align 8, !tbaa !27
  %4 = getelementptr inbounds i8, ptr %.01217, i64 -16
  %5 = load i32, ptr %4, align 8, !tbaa !33
  %6 = icmp eq i32 %5, 0
  br i1 %6, label %7, label %27

7:                                                ; preds = %.lr.ph
  %8 = load ptr, ptr @the_repository, align 8, !tbaa !31
  %9 = getelementptr inbounds i8, ptr %.01217, i64 -64
  %10 = tail call i32 @repo_has_object_file(ptr noundef %8, ptr noundef nonnull %9) #11
  %.not13 = icmp eq i32 %10, 0
  br i1 %.not13, label %12, label %11

11:                                               ; preds = %7
  store i32 3, ptr %4, align 8, !tbaa !33
  br label %27

12:                                               ; preds = %7
  call void @llvm.lifetime.start.p0(i64 8, ptr nonnull %2) #11
  %13 = getelementptr inbounds i8, ptr %.01217, i64 -24
  %14 = load ptr, ptr %13, align 8, !tbaa !76
  %15 = load ptr, ptr %14, align 8, !tbaa !12
  %16 = tail call ptr @new_http_object_request(ptr noundef %15, ptr noundef nonnull %9) #11
  store ptr %16, ptr %2, align 8, !tbaa !81
  %.not.i = icmp eq ptr %16, null
  br i1 %.not.i, label %17, label %18

17:                                               ; preds = %12
  store i32 1, ptr %4, align 8, !tbaa !33
  br label %start_object_request.exit

18:                                               ; preds = %12
  %19 = getelementptr inbounds i8, ptr %.01217, i64 -72
  %20 = getelementptr inbounds i8, ptr %.01217, i64 -8
  store ptr %16, ptr %20, align 8, !tbaa !38
  %21 = getelementptr inbounds nuw i8, ptr %16, i64 2944
  %22 = load ptr, ptr %21, align 8, !tbaa !50
  %23 = getelementptr inbounds nuw i8, ptr %22, i64 48
  store ptr @process_object_response, ptr %23, align 8, !tbaa !82
  %24 = getelementptr inbounds nuw i8, ptr %22, i64 40
  store ptr %19, ptr %24, align 8, !tbaa !83
  store i32 2, ptr %4, align 8, !tbaa !33
  %25 = tail call i32 @start_active_slot(ptr noundef %22) #11
  %.not10.i = icmp eq i32 %25, 0
  br i1 %.not10.i, label %26, label %start_object_request.exit

26:                                               ; preds = %18
  store i32 1, ptr %4, align 8, !tbaa !33
  call void @release_http_object_request(ptr noundef nonnull %2) #11
  br label %start_object_request.exit

start_object_request.exit:                        ; preds = %17, %18, %26
  call void @llvm.lifetime.end.p0(i64 8, ptr nonnull %2) #11
  br label %.loopexit

27:                                               ; preds = %.lr.ph, %11
  %.not = icmp eq ptr %.01118, @object_queue_head
  br i1 %.not, label %.loopexit, label %.lr.ph, !llvm.loop !84

.loopexit:                                        ; preds = %27, %1, %start_object_request.exit
  %.0 = phi i32 [ 1, %start_object_request.exit ], [ 0, %1 ], [ 0, %27 ]
  ret i32 %.0
}